target datalayout = "e-m:e-p270:32:32-p271:32:32-p272:64:64-i64:64-i128:128-f80:128-n8:16:32:64-S128"
target triple = "x86_64-pc-linux-gnu"

; Function Attrs: mustprogress nounwind uwtable
define noundef i32 @_ZN6icu_7718CollationFastLatin15getQuaternariesEjj(i32 noundef %0, i32 noundef %1) #2 align 2 {
  %3 = alloca i32, align 4
  %4 = alloca i32, align 4
  %5 = alloca i32, align 4
  store i32 %0, ptr %3, align 4, !tbaa !12
  store i32 %1, ptr %4, align 4, !tbaa !12
  %6 = load i32, ptr %4, align 4, !tbaa !12
  %7 = icmp ule i32 %6, 65535
  br i1 %7, label %8, label %32

8:                                                ; preds = %2
  %9 = load i32, ptr %4, align 4, !tbaa !12
  %10 = icmp uge i32 %9, 4096
  br i1 %10, label %11, label %18

11:                                               ; preds = %8
  %12 = load i32, ptr %4, align 4, !tbaa !12
  %13 = and i32 %12, 992
  %14 = icmp uge i32 %13, 384
  br i1 %14, label %15, label %16

15:                                               ; preds = %11
  store i32 -67044352, ptr %4, align 4, !tbaa !12
  br label %17

16:                                               ; preds = %11
  store i32 64512, ptr %4, align 4, !tbaa !12
  br label %17

17:                                               ; preds = %16, %15
  br label %31

18:                                               ; preds = %8
  %19 = load i32, ptr %4, align 4, !tbaa !12
  %20 = load i32, ptr %3, align 4, !tbaa !12
  %21 = icmp ugt i32 %19, %20
  br i1 %21, label %22, label %23

22:                                               ; preds = %18
  store i32 64512, ptr %4, align 4, !tbaa !12
  br label %30

23:                                               ; preds = %18
  %24 = load i32, ptr %4, align 4, !tbaa !12
  %25 = icmp uge i32 %24, 3072
  br i1 %25, label %26, label %29

26:                                               ; preds = %23
  %27 = load i32, ptr %4, align 4, !tbaa !12
  %28 = and i32 %27, 65528
  store i32 %28, ptr %4, align 4, !tbaa !12
  br label %29

29:                                               ; preds = %26, %23
  br label %30

30:                                               ; preds = %29, %22
  br label %31

31:                                               ; preds = %30, %17
  br label %43

32:                                               ; preds = %2
  call void @llvm.lifetime.start.p0(i64 4, ptr %5) #6
  %33 = load i32, ptr %4, align 4, !tbaa !12
  %34 = and i32 %33, 65535
  store i32 %34, ptr %5, align 4, !tbaa !12
  %35 = load i32, ptr %5, align 4, !tbaa !12
  %36 = load i32, ptr %3, align 4, !tbaa !12
  %37 = icmp ugt i32 %35, %36
  br i1 %37, label %38, label %39

38:                                               ; preds = %32
  store i32 -67044352, ptr %4, align 4, !tbaa !12
  br label %42

39:                                               ; preds = %32
  %40 = load i32, ptr %4, align 4, !tbaa !12
  %41 = and i32 %40, -458760
  store i32 %41, ptr %4, align 4, !tbaa !12
  br label %42

42:                                               ; preds = %39, %38
  call void @llvm.lifetime.end.p0(i64 4, ptr %5) #6
  br label %43

43:                                               ; preds = %42, %31
  %44 = load i32, ptr %4, align 4, !tbaa !12
  ret i32 %44
}