; Function Attrs: mustprogress nofree norecurse nosync nounwind willreturn memory(none) uwtable
define noundef range(i32 0, -458759) i32 @_ZN6icu_7718CollationFastLatin15getQuaternariesEjj(i32 noundef %0, i32 noundef %1) local_unnamed_addr #6 align 2 {
  %3 = icmp ult i32 %1, 65536
  br i1 %3, label %4, label %14

4:                                                ; preds = %2
  %5 = icmp samesign ugt i32 %1, 4095
  br i1 %5, label %6, label %9

6:                                                ; preds = %4
  %7 = and i32 %1, 896
  %8 = icmp samesign ugt i32 %7, 383
  %. = select i1 %8, i32 -67044352, i32 64512
  br label %18

9:                                                ; preds = %4
  %10 = icmp ugt i32 %1, %0
  br i1 %10, label %18, label %11

11:                                               ; preds = %9
  %12 = icmp samesign ugt i32 %1, 3071
  %13 = and i32 %1, 4088
  %spec.select = select i1 %12, i32 %13, i32 %1
  br label %18

14:                                               ; preds = %2
  %15 = and i32 %1, 65535
  %16 = icmp ugt i32 %15, %0
  %17 = and i32 %1, -458760
  %.1 = select i1 %16, i32 -67044352, i32 %17
  br label %18

18:                                               ; preds = %11, %9, %6, %14
  %.0 = phi i32 [ %.1, %14 ], [ %., %6 ], [ 64512, %9 ], [ %spec.select, %11 ]
  ret i32 %.0
}